target datalayout = "e-m:e-p270:32:32-p271:32:32-p272:64:64-i64:64-i128:128-f80:128-n8:16:32:64-S128"
target triple = "x86_64-pc-linux-gnu"

%struct.anon = type { double, double, ptr, ptr }
%struct.AVTextFormatContext = type { ptr, ptr, ptr, ptr, ptr, ptr, i32, i32, [12 x i32], [12 x [100 x i32]], [12 x ptr], [12 x %struct.AVBPrint], i32, i32, i32, i32, i32, ptr, i32, ptr, i32 }
%struct.AVBPrint = type { ptr, i32, i32, i32, [1 x i8], [1000 x i8] }
%struct.unit_value = type { %union.anon, ptr }
%union.anon = type { double }

@unit_second_str = internal constant [2 x i8] c"s\00", align 1
@.str.23 = private unnamed_addr constant [2 x i8] c" \00", align 1
@.str.35 = private unnamed_addr constant [1 x i8] zeroinitializer, align 1
@.str.41 = private unnamed_addr constant [15 x i8] c"%d:%02d:%09.6f\00", align 1
@unit_byte_str = internal constant [5 x i8] c"byte\00", align 1
@.str.42 = private unnamed_addr constant [3 x i8] c"%f\00", align 1
@.str.43 = private unnamed_addr constant [4 x i8] c"%ld\00", align 1
@.str.44 = private unnamed_addr constant [7 x i8] c"%s%s%s\00", align 1

; Function Attrs: alwaysinline nounwind willreturn memory(none) uwtable
define internal i64 @av_clip64_c(i64 noundef %0, i64 noundef %1, i64 noundef %2) #9 {
  %4 = alloca i64, align 8
  %5 = alloca i64, align 8
  %6 = alloca i64, align 8
  %7 = alloca i64, align 8
  store i64 %0, ptr %5, align 8, !tbaa !70
  store i64 %1, ptr %6, align 8, !tbaa !70
  store i64 %2, ptr %7, align 8, !tbaa !70
  %8 = load i64, ptr %5, align 8, !tbaa !70
  %9 = load i64, ptr %6, align 8, !tbaa !70
  %10 = icmp slt i64 %8, %9
  br i1 %10, label %11, label %13

11:                                               ; preds = %3
  %12 = load i64, ptr %6, align 8, !tbaa !70
  store i64 %12, ptr %4, align 8
  br label %21

13:                                               ; preds = %3
  %14 = load i64, ptr %5, align 8, !tbaa !70
  %15 = load i64, ptr %7, align 8, !tbaa !70
  %16 = icmp sgt i64 %14, %15
  br i1 %16, label %17, label %19

17:                                               ; preds = %13
  %18 = load i64, ptr %7, align 8, !tbaa !70
  store i64 %18, ptr %4, align 8
  br label %21

19:                                               ; preds = %13
  %20 = load i64, ptr %5, align 8, !tbaa !70
  store i64 %20, ptr %4, align 8
  br label %21

21:                                               ; preds = %19, %17, %11
  %22 = load i64, ptr %4, align 8
  ret i64 %22
}

; Function Attrs: nounwind uwtable
define internal ptr @value_string(ptr noundef %0, ptr noundef %1, i32 noundef %2, i64 %3, ptr %4) #0 {
  %6 = alloca %struct.unit_value, align 8
  %7 = alloca ptr, align 8
  %8 = alloca ptr, align 8
  %9 = alloca i32, align 4
  %10 = alloca double, align 8
  %11 = alloca i64, align 8
  %12 = alloca i32, align 4
  %13 = alloca double, align 8
  %14 = alloca i32, align 4
  %15 = alloca i32, align 4
  %16 = alloca ptr, align 8
  %17 = alloca i64, align 8
  %18 = getelementptr inbounds nuw { i64, ptr }, ptr %6, i32 0, i32 0
  store i64 %3, ptr %18, align 8
  %19 = getelementptr inbounds nuw { i64, ptr }, ptr %6, i32 0, i32 1
  store ptr %4, ptr %19, align 8
  store ptr %0, ptr %7, align 8, !tbaa !10
  store ptr %1, ptr %8, align 8, !tbaa !30
  store i32 %2, ptr %9, align 4, !tbaa !12
  call void @llvm.lifetime.start.p0(i64 8, ptr %10) #10
  call void @llvm.lifetime.start.p0(i64 8, ptr %11) #10
  store i64 0, ptr %11, align 8, !tbaa !70
  call void @llvm.lifetime.start.p0(i64 4, ptr %12) #10
  store i32 0, ptr %12, align 4, !tbaa !12
  %20 = getelementptr inbounds nuw %struct.unit_value, ptr %6, i32 0, i32 1
  %21 = load ptr, ptr %20, align 8, !tbaa !81
  %22 = icmp eq ptr %21, @unit_second_str
  br i1 %22, label %23, label %26

23:                                               ; preds = %5
  %24 = getelementptr inbounds nuw %struct.unit_value, ptr %6, i32 0, i32 0
  %25 = load double, ptr %24, align 8, !tbaa !62
  store double %25, ptr %10, align 8, !tbaa !85
  store i32 1, ptr %12, align 4, !tbaa !12
  br label %32

26:                                               ; preds = %5
  %27 = getelementptr inbounds nuw %struct.unit_value, ptr %6, i32 0, i32 0
  %28 = load i64, ptr %27, align 8, !tbaa !62
  %29 = sitofp i64 %28 to double
  store double %29, ptr %10, align 8, !tbaa !85
  %30 = getelementptr inbounds nuw %struct.unit_value, ptr %6, i32 0, i32 0
  %31 = load i64, ptr %30, align 8, !tbaa !62
  store i64 %31, ptr %11, align 8, !tbaa !70
  br label %32

32:                                               ; preds = %26, %23
  %33 = getelementptr inbounds nuw %struct.unit_value, ptr %6, i32 0, i32 1
  %34 = load ptr, ptr %33, align 8, !tbaa !81
  %35 = icmp eq ptr %34, @unit_second_str
  br i1 %35, label %36, label %62

36:                                               ; preds = %32
  %37 = load ptr, ptr %7, align 8, !tbaa !10
  %38 = getelementptr inbounds nuw %struct.AVTextFormatContext, ptr %37, i32 0, i32 16
  %39 = load i32, ptr %38, align 8, !tbaa !43
  %40 = icmp ne i32 %39, 0
  br i1 %40, label %41, label %62

41:                                               ; preds = %36
  call void @llvm.lifetime.start.p0(i64 8, ptr %13) #10
  call void @llvm.lifetime.start.p0(i64 4, ptr %14) #10
  call void @llvm.lifetime.start.p0(i64 4, ptr %15) #10
  %42 = load double, ptr %10, align 8, !tbaa !85
  store double %42, ptr %13, align 8, !tbaa !85
  %43 = load double, ptr %13, align 8, !tbaa !85
  %44 = fptosi double %43 to i32
  %45 = sdiv i32 %44, 60
  store i32 %45, ptr %15, align 4, !tbaa !12
  %46 = load double, ptr %13, align 8, !tbaa !85
  %47 = load i32, ptr %15, align 4, !tbaa !12
  %48 = mul nsw i32 %47, 60
  %49 = sitofp i32 %48 to double
  %50 = fsub nsz double %46, %49
  store double %50, ptr %13, align 8, !tbaa !85
  %51 = load i32, ptr %15, align 4, !tbaa !12
  %52 = sdiv i32 %51, 60
  store i32 %52, ptr %14, align 4, !tbaa !12
  %53 = load i32, ptr %15, align 4, !tbaa !12
  %54 = srem i32 %53, 60
  store i32 %54, ptr %15, align 4, !tbaa !12
  %55 = load ptr, ptr %8, align 8, !tbaa !30
  %56 = load i32, ptr %9, align 4, !tbaa !12
  %57 = sext i32 %56 to i64
  %58 = load i32, ptr %14, align 4, !tbaa !12
  %59 = load i32, ptr %15, align 4, !tbaa !12
  %60 = load double, ptr %13, align 8, !tbaa !85
  %61 = call i32 (ptr, i64, ptr, ...) @snprintf(ptr noundef %55, i64 noundef %57, ptr noundef @.str.41, i32 noundef %58, i32 noundef %59, double noundef %60) #10
  call void @llvm.lifetime.end.p0(i64 4, ptr %15) #10
  call void @llvm.lifetime.end.p0(i64 4, ptr %14) #10
  call void @llvm.lifetime.end.p0(i64 8, ptr %13) #10
  br label %170

62:                                               ; preds = %36, %32
  call void @llvm.lifetime.start.p0(i64 8, ptr %16) #10
  store ptr @.str.35, ptr %16, align 8, !tbaa !30
  %63 = load ptr, ptr %7, align 8, !tbaa !10
  %64 = getelementptr inbounds nuw %struct.AVTextFormatContext, ptr %63, i32 0, i32 14
  %65 = load i32, ptr %64, align 8, !tbaa !39
  %66 = icmp ne i32 %65, 0
  br i1 %66, label %67, label %116

67:                                               ; preds = %62
  %68 = load double, ptr %10, align 8, !tbaa !85
  %69 = fcmp nsz ogt double %68, 1.000000e+00
  br i1 %69, label %70, label %116

70:                                               ; preds = %67
  call void @llvm.lifetime.start.p0(i64 8, ptr %17) #10
  %71 = getelementptr inbounds nuw %struct.unit_value, ptr %6, i32 0, i32 1
  %72 = load ptr, ptr %71, align 8, !tbaa !81
  %73 = icmp eq ptr %72, @unit_byte_str
  br i1 %73, label %74, label %96

74:                                               ; preds = %70
  %75 = load ptr, ptr %7, align 8, !tbaa !10
  %76 = getelementptr inbounds nuw %struct.AVTextFormatContext, ptr %75, i32 0, i32 15
  %77 = load i32, ptr %76, align 4, !tbaa !41
  %78 = icmp ne i32 %77, 0
  br i1 %78, label %79, label %96

79:                                               ; preds = %74
  %80 = load double, ptr %10, align 8, !tbaa !85
  %81 = call nsz double @llvm.log2.f64(double %80)
  %82 = fdiv nsz double %81, 1.000000e+01
  %83 = fptosi double %82 to i64
  store i64 %83, ptr %17, align 8, !tbaa !70
  %84 = load i64, ptr %17, align 8, !tbaa !70
  %85 = call i64 @av_clip64_c(i64 noundef %84, i64 noundef 0, i64 noundef 5) #13
  store i64 %85, ptr %17, align 8, !tbaa !70
  %86 = load i64, ptr %17, align 8, !tbaa !70
  %87 = getelementptr inbounds [6 x %struct.anon], ptr @si_prefixes, i64 0, i64 %86
  %88 = getelementptr inbounds nuw %struct.anon, ptr %87, i32 0, i32 0
  %89 = load double, ptr %88, align 16, !tbaa !87
  %90 = load double, ptr %10, align 8, !tbaa !85
  %91 = fdiv nsz double %90, %89
  store double %91, ptr %10, align 8, !tbaa !85
  %92 = load i64, ptr %17, align 8, !tbaa !70
  %93 = getelementptr inbounds [6 x %struct.anon], ptr @si_prefixes, i64 0, i64 %92
  %94 = getelementptr inbounds nuw %struct.anon, ptr %93, i32 0, i32 2
  %95 = load ptr, ptr %94, align 16, !tbaa !89
  store ptr %95, ptr %16, align 8, !tbaa !30
  br label %113

96:                                               ; preds = %74, %70
  %97 = load double, ptr %10, align 8, !tbaa !85
  %98 = call nsz double @llvm.log10.f64(double %97)
  %99 = fdiv nsz double %98, 3.000000e+00
  %100 = fptosi double %99 to i64
  store i64 %100, ptr %17, align 8, !tbaa !70
  %101 = load i64, ptr %17, align 8, !tbaa !70
  %102 = call i64 @av_clip64_c(i64 noundef %101, i64 noundef 0, i64 noundef 5) #13
  store i64 %102, ptr %17, align 8, !tbaa !70
  %103 = load i64, ptr %17, align 8, !tbaa !70
  %104 = getelementptr inbounds [6 x %struct.anon], ptr @si_prefixes, i64 0, i64 %103
  %105 = getelementptr inbounds nuw %struct.anon, ptr %104, i32 0, i32 1
  %106 = load double, ptr %105, align 8, !tbaa !90
  %107 = load double, ptr %10, align 8, !tbaa !85
  %108 = fdiv nsz double %107, %106
  store double %108, ptr %10, align 8, !tbaa !85
  %109 = load i64, ptr %17, align 8, !tbaa !70
  %110 = getelementptr inbounds [6 x %struct.anon], ptr @si_prefixes, i64 0, i64 %109
  %111 = getelementptr inbounds nuw %struct.anon, ptr %110, i32 0, i32 3
  %112 = load ptr, ptr %111, align 8, !tbaa !91
  store ptr %112, ptr %16, align 8, !tbaa !30
  br label %113

113:                                              ; preds = %96, %79
  %114 = load double, ptr %10, align 8, !tbaa !85
  %115 = fptosi double %114 to i64
  store i64 %115, ptr %11, align 8, !tbaa !70
  call void @llvm.lifetime.end.p0(i64 8, ptr %17) #10
  br label %116

116:                                              ; preds = %113, %67, %62
  %117 = load i32, ptr %12, align 4, !tbaa !12
  %118 = icmp ne i32 %117, 0
  br i1 %118, label %130, label %119

119:                                              ; preds = %116
  %120 = load ptr, ptr %7, align 8, !tbaa !10
  %121 = getelementptr inbounds nuw %struct.AVTextFormatContext, ptr %120, i32 0, i32 14
  %122 = load i32, ptr %121, align 8, !tbaa !39
  %123 = icmp ne i32 %122, 0
  br i1 %123, label %124, label %136

124:                                              ; preds = %119
  %125 = load double, ptr %10, align 8, !tbaa !85
  %126 = load double, ptr %10, align 8, !tbaa !85
  %127 = fptosi double %126 to i64
  %128 = sitofp i64 %127 to double
  %129 = fcmp nsz une double %125, %128
  br i1 %129, label %130, label %136

130:                                              ; preds = %124, %116
  %131 = load ptr, ptr %8, align 8, !tbaa !30
  %132 = load i32, ptr %9, align 4, !tbaa !12
  %133 = sext i32 %132 to i64
  %134 = load double, ptr %10, align 8, !tbaa !85
  %135 = call i32 (ptr, i64, ptr, ...) @snprintf(ptr noundef %131, i64 noundef %133, ptr noundef @.str.42, double noundef %134) #10
  br label %142

136:                                              ; preds = %124, %119
  %137 = load ptr, ptr %8, align 8, !tbaa !30
  %138 = load i32, ptr %9, align 4, !tbaa !12
  %139 = sext i32 %138 to i64
  %140 = load i64, ptr %11, align 8, !tbaa !70
  %141 = call i32 (ptr, i64, ptr, ...) @snprintf(ptr noundef %137, i64 noundef %139, ptr noundef @.str.43, i64 noundef %140) #10
  br label %142

142:                                              ; preds = %136, %130
  %143 = load ptr, ptr %8, align 8, !tbaa !30
  %144 = load i32, ptr %9, align 4, !tbaa !12
  %145 = sext i32 %144 to i64
  %146 = load ptr, ptr %16, align 8, !tbaa !30
  %147 = load i8, ptr %146, align 1, !tbaa !62
  %148 = sext i8 %147 to i32
  %149 = icmp ne i32 %148, 0
  br i1 %149, label %155, label %150

150:                                              ; preds = %142
  %151 = load ptr, ptr %7, align 8, !tbaa !10
  %152 = getelementptr inbounds nuw %struct.AVTextFormatContext, ptr %151, i32 0, i32 13
  %153 = load i32, ptr %152, align 4, !tbaa !37
  %154 = icmp ne i32 %153, 0
  br label %155

155:                                              ; preds = %150, %142
  %156 = phi i1 [ true, %142 ], [ %154, %150 ]
  %157 = select i1 %156, ptr @.str.23, ptr @.str.35
  %158 = load ptr, ptr %16, align 8, !tbaa !30
  %159 = load ptr, ptr %7, align 8, !tbaa !10
  %160 = getelementptr inbounds nuw %struct.AVTextFormatContext, ptr %159, i32 0, i32 13
  %161 = load i32, ptr %160, align 4, !tbaa !37
  %162 = icmp ne i32 %161, 0
  br i1 %162, label %163, label %166

163:                                              ; preds = %155
  %164 = getelementptr inbounds nuw %struct.unit_value, ptr %6, i32 0, i32 1
  %165 = load ptr, ptr %164, align 8, !tbaa !81
  br label %167

166:                                              ; preds = %155
  br label %167

167:                                              ; preds = %166, %163
  %168 = phi ptr [ %165, %163 ], [ @.str.35, %166 ]
  %169 = call i64 (ptr, i64, ptr, ...) @av_strlcatf(ptr noundef %143, i64 noundef %145, ptr noundef @.str.44, ptr noundef %157, ptr noundef %158, ptr noundef %168)
  call void @llvm.lifetime.end.p0(i64 8, ptr %16) #10
  br label %170

170:                                              ; preds = %167, %41
  %171 = load ptr, ptr %8, align 8, !tbaa !30
  call void @llvm.lifetime.end.p0(i64 4, ptr %12) #10
  call void @llvm.lifetime.end.p0(i64 8, ptr %11) #10
  call void @llvm.lifetime.end.p0(i64 8, ptr %10) #10
  ret ptr %171
}