; Function Attrs: nounwind uwtable
define internal fastcc noundef nonnull ptr @value_string(ptr noundef readonly captures(none) %0, ptr noundef nonnull returned %1, i64 %2, ptr %3) unnamed_addr #0 {
  %.not54 = icmp eq ptr %3, @unit_second_str
  %5 = bitcast i64 %2 to double
  %6 = sitofp i64 %2 to double
  %.047 = select nsz i1 %.not54, double %5, double %6
  br i1 %.not54, label %7, label %19

7:                                                ; preds = %4
  %8 = getelementptr inbounds nuw i8, ptr %0, i64 17304
  %9 = load i32, ptr %8, align 8, !tbaa !35
  %.not = icmp eq i32 %9, 0
  br i1 %.not, label %.thread, label %10

10:                                               ; preds = %7
  %11 = fptosi double %5 to i32
  %12 = sdiv i32 %11, 60
  %13 = mul nsw i32 %12, 60
  %14 = sitofp i32 %13 to double
  %15 = fsub nsz double %5, %14
  %16 = sdiv i32 %11, 3600
  %17 = srem i32 %12, 60
  %18 = tail call i32 (ptr, i64, ptr, ...) @snprintf(ptr noundef nonnull dereferenceable(1) %1, i64 noundef 128, ptr noundef nonnull @.str.41, i32 noundef %16, i32 noundef %17, double noundef %15) #12
  br label %63

19:                                               ; preds = %4
  %20 = getelementptr inbounds nuw i8, ptr %0, i64 17296
  %21 = load i32, ptr %20, align 8, !tbaa !31
  %22 = icmp ne i32 %21, 0
  %23 = icmp sgt i64 %2, 1
  %or.cond = select i1 %22, i1 %23, i1 false
  br i1 %or.cond, label %28, label %50

.thread:                                          ; preds = %7
  %24 = getelementptr inbounds nuw i8, ptr %0, i64 17296
  %25 = load i32, ptr %24, align 8, !tbaa !31
  %26 = icmp ne i32 %25, 0
  %27 = fcmp nsz ogt double %5, 1.000000e+00
  %or.cond61 = select i1 %26, i1 %27, i1 false
  br i1 %or.cond61, label %.thread62, label %.thread63

28:                                               ; preds = %19
  %29 = icmp eq ptr %3, @unit_byte_str
  br i1 %29, label %30, label %.thread62

30:                                               ; preds = %28
  %31 = getelementptr inbounds nuw i8, ptr %0, i64 17300
  %32 = load i32, ptr %31, align 4, !tbaa !33
  %.not52 = icmp eq i32 %32, 0
  br i1 %.not52, label %.thread62, label %.thread77

.thread77:                                        ; preds = %30
  %33 = tail call nsz double @llvm.log2.f64(double %6)
  %34 = fdiv nsz double %33, 1.000000e+01
  %35 = fptosi double %34 to i64
  %36 = tail call i64 @llvm.smax.i64(i64 %35, i64 0)
  %37 = tail call i64 @llvm.umin.i64(i64 %36, i64 5)
  %38 = getelementptr inbounds nuw [6 x %struct.anon], ptr @si_prefixes, i64 0, i64 %37
  %39 = getelementptr inbounds nuw i8, ptr %38, i64 16
  %.180 = load ptr, ptr %39, align 16, !tbaa !51
  %.pn81 = load double, ptr %38, align 16, !tbaa !71
  %.282 = fdiv nsz double %6, %.pn81
  %40 = fptosi double %.282 to i64
  br label %.thread83

.thread62:                                        ; preds = %.thread, %28, %30
  %41 = tail call nsz double @llvm.log10.f64(double %.047)
  %42 = fdiv nsz double %41, 3.000000e+00
  %43 = fptosi double %42 to i64
  %44 = tail call i64 @llvm.smax.i64(i64 %43, i64 0)
  %45 = tail call i64 @llvm.umin.i64(i64 %44, i64 5)
  %46 = getelementptr inbounds nuw [6 x %struct.anon], ptr @si_prefixes, i64 0, i64 %45
  %47 = getelementptr inbounds nuw i8, ptr %46, i64 8
  %48 = getelementptr inbounds nuw i8, ptr %46, i64 24
  %.1 = load ptr, ptr %48, align 8, !tbaa !51
  %.pn = load double, ptr %47, align 8, !tbaa !71
  %.2 = fdiv nsz double %.047, %.pn
  %49 = fptosi double %.2 to i64
  br i1 %.not54, label %.thread63, label %.thread83

50:                                               ; preds = %19
  %.not55 = icmp eq i32 %21, 0
  br i1 %.not55, label %54, label %..thread83_crit_edge

..thread83_crit_edge:                             ; preds = %50
  %.pre93 = fptosi double %6 to i64
  br label %.thread83

.thread83:                                        ; preds = %..thread83_crit_edge, %.thread77, %.thread62
  %.pre-phi = phi i64 [ %.pre93, %..thread83_crit_edge ], [ %40, %.thread77 ], [ %49, %.thread62 ]
  %.1507491 = phi i64 [ %2, %..thread83_crit_edge ], [ %40, %.thread77 ], [ %49, %.thread62 ]
  %.1487590 = phi double [ %6, %..thread83_crit_edge ], [ %.282, %.thread77 ], [ %.2, %.thread62 ]
  %.07688 = phi ptr [ @.str.35, %..thread83_crit_edge ], [ %.180, %.thread77 ], [ %.1, %.thread62 ]
  %51 = sitofp i64 %.pre-phi to double
  %52 = fcmp nsz une double %.1487590, %51
  br i1 %52, label %.thread63, label %54

.thread63:                                        ; preds = %.thread, %.thread83, %.thread62
  %.069 = phi ptr [ %.07688, %.thread83 ], [ %.1, %.thread62 ], [ @.str.35, %.thread ]
  %.14867 = phi double [ %.1487590, %.thread83 ], [ %.2, %.thread62 ], [ %5, %.thread ]
  %53 = tail call i32 (ptr, i64, ptr, ...) @snprintf(ptr noundef nonnull dereferenceable(1) %1, i64 noundef 128, ptr noundef nonnull @.str.42, double noundef %.14867) #12
  br label %._crit_edge

54:                                               ; preds = %.thread83, %50
  %.1507492 = phi i64 [ %.1507491, %.thread83 ], [ %2, %50 ]
  %.07689 = phi ptr [ %.07688, %.thread83 ], [ @.str.35, %50 ]
  %55 = tail call i32 (ptr, i64, ptr, ...) @snprintf(ptr noundef nonnull dereferenceable(1) %1, i64 noundef 128, ptr noundef nonnull @.str.43, i64 noundef %.1507492) #12
  br label %._crit_edge

._crit_edge:                                      ; preds = %54, %.thread63
  %.068 = phi ptr [ %.07689, %54 ], [ %.069, %.thread63 ]
  %56 = load i8, ptr %.068, align 1, !tbaa !52
  %.not56 = icmp eq i8 %56, 0
  %57 = getelementptr inbounds nuw i8, ptr %0, i64 17292
  %58 = load i32, ptr %57, align 4, !tbaa !29
  %.not57 = icmp eq i32 %58, 0
  %59 = and i1 %.not56, %.not57
  %60 = select i1 %59, ptr @.str.35, ptr @.str.23
  %.not58 = icmp eq i32 %58, 0
  %61 = select i1 %.not58, ptr @.str.35, ptr %3
  %62 = tail call i64 (ptr, i64, ptr, ...) @av_strlcatf(ptr noundef nonnull %1, i64 noundef 128, ptr noundef nonnull @.str.44, ptr noundef nonnull %60, ptr noundef nonnull %.068, ptr noundef %61) #12
  br label %63

63:                                               ; preds = %._crit_edge, %10
  ret ptr %1
}